target datalayout = "e-m:e-p270:32:32-p271:32:32-p272:64:64-i64:64-i128:128-f80:128-n8:16:32:64-S128"
target triple = "x86_64-pc-linux-gnu"

%struct.pmix_output_desc_t = type { i8, i8, i32, i8, i32, ptr, ptr, i32, ptr, i32, i8, i8, i8, i8, ptr, i32, i32 }
%struct.statfs = type { i64, i64, i64, i64, i64, i64, i64, %struct.__fsid_t, i64, i64, i64, [4 x i64] }
%struct.__fsid_t = type { [2 x i32] }

@pmix_output_info = external global [0 x %struct.pmix_output_desc_t], align 8
@.str.12 = private unnamed_addr constant [64 x i8] c"pmix_path_df: stat(v)fs on path: %s failed with errno: %d (%s)\0A\00", align 1
@.str.13 = private unnamed_addr constant [65 x i8] c"pmix_path_df: stat(v)fs states path: %s has %lu B of free space.\00", align 1

; Function Attrs: nounwind uwtable
define i32 @pmix_path_df(ptr noundef %0, ptr noundef %1) #0 {
  %3 = alloca i32, align 4
  %4 = alloca ptr, align 8
  %5 = alloca ptr, align 8
  %6 = alloca i32, align 4
  %7 = alloca i32, align 4
  %8 = alloca i32, align 4
  %9 = alloca %struct.statfs, align 8
  %10 = alloca i32, align 4
  store ptr %0, ptr %4, align 8, !tbaa !3
  store ptr %1, ptr %5, align 8, !tbaa !39
  call void @llvm.lifetime.start.p0(i64 4, ptr %6) #8
  store i32 -1, ptr %6, align 4, !tbaa !11
  call void @llvm.lifetime.start.p0(i64 4, ptr %7) #8
  store i32 5, ptr %7, align 4, !tbaa !11
  call void @llvm.lifetime.start.p0(i64 4, ptr %8) #8
  store i32 0, ptr %8, align 4, !tbaa !11
  call void @llvm.lifetime.start.p0(i64 120, ptr %9) #8
  %11 = load ptr, ptr %4, align 8, !tbaa !3
  %12 = icmp eq ptr null, %11
  br i1 %12, label %16, label %13

13:                                               ; preds = %2
  %14 = load ptr, ptr %5, align 8, !tbaa !39
  %15 = icmp eq ptr null, %14
  br i1 %15, label %16, label %17

16:                                               ; preds = %13, %2
  store i32 -1, ptr %3, align 4
  store i32 1, ptr %10, align 4
  br label %70

17:                                               ; preds = %13
  %18 = load ptr, ptr %5, align 8, !tbaa !39
  store i64 0, ptr %18, align 8, !tbaa !15
  br label %19

19:                                               ; preds = %34, %17
  %20 = load ptr, ptr %4, align 8, !tbaa !3
  %21 = call i32 @statfs(ptr noundef %20, ptr noundef %9) #8
  store i32 %21, ptr %6, align 4, !tbaa !11
  %22 = call ptr @__errno_location() #11
  %23 = load i32, ptr %22, align 4, !tbaa !11
  store i32 %23, ptr %8, align 4, !tbaa !11
  br label %24

24:                                               ; preds = %19
  %25 = load i32, ptr %6, align 4, !tbaa !11
  %26 = icmp eq i32 -1, %25
  br i1 %26, label %27, label %34

27:                                               ; preds = %24
  %28 = load i32, ptr %8, align 4, !tbaa !11
  %29 = icmp eq i32 116, %28
  br i1 %29, label %30, label %34

30:                                               ; preds = %27
  %31 = load i32, ptr %7, align 4, !tbaa !11
  %32 = add nsw i32 %31, -1
  store i32 %32, ptr %7, align 4, !tbaa !11
  %33 = icmp sgt i32 %32, 0
  br label %34

34:                                               ; preds = %30, %27, %24
  %35 = phi i1 [ false, %27 ], [ false, %24 ], [ %33, %30 ]
  br i1 %35, label %19, label %36, !llvm.loop !41

36:                                               ; preds = %34
  %37 = load i32, ptr %6, align 4, !tbaa !11
  %38 = icmp eq i32 -1, %37
  br i1 %38, label %39, label %48

39:                                               ; preds = %36
  %40 = load i32, ptr getelementptr inbounds nuw (%struct.pmix_output_desc_t, ptr getelementptr inbounds ([0 x %struct.pmix_output_desc_t], ptr @pmix_output_info, i64 0, i64 2), i32 0, i32 2), align 4, !tbaa !42
  %41 = icmp sge i32 %40, 10
  br i1 %41, label %42, label %47

42:                                               ; preds = %39
  %43 = load ptr, ptr %4, align 8, !tbaa !3
  %44 = load i32, ptr %8, align 4, !tbaa !11
  %45 = load i32, ptr %8, align 4, !tbaa !11
  %46 = call ptr @strerror(i32 noundef %45) #8
  call void (i32, ptr, ...) @pmix_output(i32 noundef 2, ptr noundef @.str.12, ptr noundef %43, i32 noundef %44, ptr noundef %46)
  br label %47

47:                                               ; preds = %42, %39
  store i32 -1, ptr %3, align 4
  store i32 1, ptr %10, align 4
  br label %70

48:                                               ; preds = %36
  %49 = getelementptr inbounds nuw %struct.statfs, ptr %9, i32 0, i32 1
  %50 = load i64, ptr %49, align 8, !tbaa !44
  %51 = getelementptr inbounds nuw %struct.statfs, ptr %9, i32 0, i32 4
  %52 = load i64, ptr %51, align 8, !tbaa !47
  %53 = trunc i64 %52 to i32
  %54 = icmp slt i32 %53, 0
  br i1 %54, label %55, label %56

55:                                               ; preds = %48
  br label %59

56:                                               ; preds = %48
  %57 = getelementptr inbounds nuw %struct.statfs, ptr %9, i32 0, i32 4
  %58 = load i64, ptr %57, align 8, !tbaa !47
  br label %59

59:                                               ; preds = %56, %55
  %60 = phi i64 [ 0, %55 ], [ %58, %56 ]
  %61 = mul i64 %50, %60
  %62 = load ptr, ptr %5, align 8, !tbaa !39
  store i64 %61, ptr %62, align 8, !tbaa !15
  %63 = load i32, ptr getelementptr inbounds nuw (%struct.pmix_output_desc_t, ptr getelementptr inbounds ([0 x %struct.pmix_output_desc_t], ptr @pmix_output_info, i64 0, i64 2), i32 0, i32 2), align 4, !tbaa !42
  %64 = icmp sge i32 %63, 10
  br i1 %64, label %65, label %69

65:                                               ; preds = %59
  %66 = load ptr, ptr %4, align 8, !tbaa !3
  %67 = load ptr, ptr %5, align 8, !tbaa !39
  %68 = load i64, ptr %67, align 8, !tbaa !15
  call void (i32, ptr, ...) @pmix_output(i32 noundef 2, ptr noundef @.str.13, ptr noundef %66, i64 noundef %68)
  br label %69

69:                                               ; preds = %65, %59
  store i32 0, ptr %3, align 4
  store i32 1, ptr %10, align 4
  br label %70

70:                                               ; preds = %69, %47, %16
  call void @llvm.lifetime.end.p0(i64 120, ptr %9) #8
  call void @llvm.lifetime.end.p0(i64 4, ptr %8) #8
  call void @llvm.lifetime.end.p0(i64 4, ptr %7) #8
  call void @llvm.lifetime.end.p0(i64 4, ptr %6) #8
  %71 = load i32, ptr %3, align 4
  ret i32 %71
}