; Function Attrs: nounwind uwtable
define range(i32 -1, 1) i32 @pmix_path_df(ptr noundef %0, ptr noundef writeonly captures(address_is_null) %1) local_unnamed_addr #1 {
  %3 = alloca %struct.statfs, align 8
  call void @llvm.lifetime.start.p0(i64 120, ptr nonnull %3) #14
  %4 = icmp eq ptr %0, null
  %5 = icmp eq ptr %1, null
  %or.cond = or i1 %4, %5
  br i1 %or.cond, label %31, label %6

6:                                                ; preds = %2
  store i64 0, ptr %1, align 8, !tbaa !28
  br label %7

7:                                                ; preds = %7, %6
  %.0 = phi i32 [ 5, %6 ], [ %13, %7 ]
  %8 = call i32 @statfs(ptr noundef %0, ptr noundef nonnull %3) #14
  %9 = tail call ptr @__errno_location() #17
  %10 = load i32, ptr %9, align 4, !tbaa !12
  %11 = icmp eq i32 %8, -1
  %12 = icmp eq i32 %10, 116
  %or.cond3 = select i1 %11, i1 %12, i1 false
  %13 = add nsw i32 %.0, -1
  %14 = icmp samesign ugt i32 %.0, 1
  %or.cond22 = select i1 %or.cond3, i1 %14, i1 false
  br i1 %or.cond22, label %7, label %.critedge, !llvm.loop !29

.critedge:                                        ; preds = %7
  br i1 %11, label %15, label %20

15:                                               ; preds = %.critedge
  %16 = load i32, ptr getelementptr inbounds nuw (i8, ptr @pmix_output_info, i64 148), align 4, !tbaa !30
  %17 = icmp sgt i32 %16, 9
  br i1 %17, label %18, label %31

18:                                               ; preds = %15
  %19 = call ptr @strerror(i32 noundef %10) #14
  call void (i32, ptr, ...) @pmix_output(i32 noundef 2, ptr noundef nonnull @.str.12, ptr noundef %0, i32 noundef %10, ptr noundef %19) #14
  br label %31

20:                                               ; preds = %.critedge
  %21 = getelementptr inbounds nuw i8, ptr %3, i64 8
  %22 = load i64, ptr %21, align 8, !tbaa !33
  %23 = getelementptr inbounds nuw i8, ptr %3, i64 32
  %24 = load i64, ptr %23, align 8, !tbaa !36
  %25 = and i64 %24, 2147483648
  %.not = icmp eq i64 %25, 0
  %26 = select i1 %.not, i64 %24, i64 0
  %27 = mul i64 %26, %22
  store i64 %27, ptr %1, align 8, !tbaa !28
  %28 = load i32, ptr getelementptr inbounds nuw (i8, ptr @pmix_output_info, i64 148), align 4, !tbaa !30
  %29 = icmp sgt i32 %28, 9
  br i1 %29, label %30, label %31

30:                                               ; preds = %20
  call void (i32, ptr, ...) @pmix_output(i32 noundef 2, ptr noundef nonnull @.str.13, ptr noundef %0, i64 noundef %27) #14
  br label %31

31:                                               ; preds = %20, %30, %15, %18, %2
  %.017 = phi i32 [ -1, %2 ], [ -1, %18 ], [ -1, %15 ], [ 0, %30 ], [ 0, %20 ]
  call void @llvm.lifetime.end.p0(i64 120, ptr nonnull %3) #14
  ret i32 %.017
}